; Function Attrs: mustprogress nounwind uwtable
define void @_ZN7rocksdb21ParsedFullFilterBlockD2Ev(ptr noundef nonnull align 8 captures(none) dereferenceable(40) %0) unnamed_addr #2 align 2 personality ptr @__gxx_personality_v0 {
  %2 = getelementptr inbounds nuw i8, ptr %0, i64 32
  %3 = load ptr, ptr %2, align 8, !tbaa !19
  %.not.i = icmp eq ptr %3, null
  br i1 %.not.i, label %_ZNSt10unique_ptrIN7rocksdb16FilterBitsReaderESt14default_deleteIS1_EED2Ev.exit, label %_ZNKSt14default_deleteIN7rocksdb16FilterBitsReaderEEclEPS1_.exit.i

_ZNKSt14default_deleteIN7rocksdb16FilterBitsReaderEEclEPS1_.exit.i: ; preds = %1
  %4 = load ptr, ptr %3, align 8, !tbaa !17
  %5 = getelementptr inbounds nuw i8, ptr %4, i64 8
  %6 = load ptr, ptr %5, align 8
  tail call void %6(ptr noundef nonnull align 8 dereferenceable(8) %3) #9
  br label %_ZNSt10unique_ptrIN7rocksdb16FilterBitsReaderESt14default_deleteIS1_EED2Ev.exit

_ZNSt10unique_ptrIN7rocksdb16FilterBitsReaderESt14default_deleteIS1_EED2Ev.exit: ; preds = %1, %_ZNKSt14default_deleteIN7rocksdb16FilterBitsReaderEEclEPS1_.exit.i
  store ptr null, ptr %2, align 8, !tbaa !19
  %7 = getelementptr inbounds nuw i8, ptr %0, i64 24
  %8 = load ptr, ptr %7, align 8, !tbaa !12
  %.not.i.i = icmp eq ptr %8, null
  br i1 %.not.i.i, label %_ZN7rocksdb13BlockContentsD2Ev.exit, label %9

9:                                                ; preds = %_ZNSt10unique_ptrIN7rocksdb16FilterBitsReaderESt14default_deleteIS1_EED2Ev.exit
  %10 = getelementptr inbounds nuw i8, ptr %0, i64 16
  %11 = load ptr, ptr %10, align 8, !tbaa !21
  %.not.i.i.i = icmp eq ptr %11, null
  br i1 %.not.i.i.i, label %16, label %12

12:                                               ; preds = %9
  %13 = load ptr, ptr %11, align 8, !tbaa !17
  %14 = getelementptr inbounds nuw i8, ptr %13, i64 160
  %15 = load ptr, ptr %14, align 8
  invoke void %15(ptr noundef nonnull align 8 dereferenceable(32) %11, ptr noundef nonnull %8)
          to label %_ZN7rocksdb13BlockContentsD2Ev.exit unwind label %17

16:                                               ; preds = %9
  tail call void @_ZdaPv(ptr noundef nonnull %8) #8
  br label %_ZN7rocksdb13BlockContentsD2Ev.exit

17:                                               ; preds = %12
  %18 = landingpad { ptr, i32 }
          catch ptr null
  %19 = extractvalue { ptr, i32 } %18, 0
  tail call void @__clang_call_terminate(ptr %19) #10
  unreachable

_ZN7rocksdb13BlockContentsD2Ev.exit:              ; preds = %_ZNSt10unique_ptrIN7rocksdb16FilterBitsReaderESt14default_deleteIS1_EED2Ev.exit, %12, %16
  store ptr null, ptr %7, align 8, !tbaa !12
  ret void
}